target datalayout = "e-m:e-p270:32:32-p271:32:32-p272:64:64-i64:64-i128:128-f80:128-n8:16:32:64-S128"
target triple = "x86_64-pc-linux-gnu"

%struct.PROXY_CERT_INFO_EXTENSION_st = type { ptr, ptr }
%struct.PROXY_POLICY_st = type { ptr, ptr }
%struct.asn1_string_st = type { i32, i32, ptr, i64 }

@.str = private unnamed_addr constant [28 x i8] c"%*sPath Length Constraint: \00", align 1
@.str.1 = private unnamed_addr constant [1 x i8] zeroinitializer, align 1
@.str.2 = private unnamed_addr constant [9 x i8] c"infinite\00", align 1
@.str.3 = private unnamed_addr constant [2 x i8] c"\0A\00", align 1
@.str.4 = private unnamed_addr constant [21 x i8] c"%*sPolicy Language: \00", align 1
@.str.5 = private unnamed_addr constant [20 x i8] c"%*sPolicy Text: %s\0A\00", align 1

; Function Attrs: nounwind uwtable
define internal i32 @i2r_pci(ptr noundef %0, ptr noundef %1, ptr noundef %2, i32 noundef %3) #0 {
  %5 = alloca ptr, align 8
  %6 = alloca ptr, align 8
  %7 = alloca ptr, align 8
  %8 = alloca i32, align 4
  store ptr %0, ptr %5, align 8, !tbaa !6
  store ptr %1, ptr %6, align 8, !tbaa !11
  store ptr %2, ptr %7, align 8, !tbaa !13
  store i32 %3, ptr %8, align 4, !tbaa !15
  %9 = load ptr, ptr %7, align 8, !tbaa !13
  %10 = load i32, ptr %8, align 4, !tbaa !15
  %11 = call i32 (ptr, ptr, ...) @BIO_printf(ptr noundef %9, ptr noundef @.str, i32 noundef %10, ptr noundef @.str.1)
  %12 = load ptr, ptr %6, align 8, !tbaa !11
  %13 = getelementptr inbounds nuw %struct.PROXY_CERT_INFO_EXTENSION_st, ptr %12, i32 0, i32 0
  %14 = load ptr, ptr %13, align 8, !tbaa !17
  %15 = icmp ne ptr %14, null
  br i1 %15, label %16, label %22

16:                                               ; preds = %4
  %17 = load ptr, ptr %7, align 8, !tbaa !13
  %18 = load ptr, ptr %6, align 8, !tbaa !11
  %19 = getelementptr inbounds nuw %struct.PROXY_CERT_INFO_EXTENSION_st, ptr %18, i32 0, i32 0
  %20 = load ptr, ptr %19, align 8, !tbaa !17
  %21 = call i32 @i2a_ASN1_INTEGER(ptr noundef %17, ptr noundef %20)
  br label %25

22:                                               ; preds = %4
  %23 = load ptr, ptr %7, align 8, !tbaa !13
  %24 = call i32 (ptr, ptr, ...) @BIO_printf(ptr noundef %23, ptr noundef @.str.2)
  br label %25

25:                                               ; preds = %22, %16
  %26 = load ptr, ptr %7, align 8, !tbaa !13
  %27 = call i32 @BIO_puts(ptr noundef %26, ptr noundef @.str.3)
  %28 = load ptr, ptr %7, align 8, !tbaa !13
  %29 = load i32, ptr %8, align 4, !tbaa !15
  %30 = call i32 (ptr, ptr, ...) @BIO_printf(ptr noundef %28, ptr noundef @.str.4, i32 noundef %29, ptr noundef @.str.1)
  %31 = load ptr, ptr %7, align 8, !tbaa !13
  %32 = load ptr, ptr %6, align 8, !tbaa !11
  %33 = getelementptr inbounds nuw %struct.PROXY_CERT_INFO_EXTENSION_st, ptr %32, i32 0, i32 1
  %34 = load ptr, ptr %33, align 8, !tbaa !21
  %35 = getelementptr inbounds nuw %struct.PROXY_POLICY_st, ptr %34, i32 0, i32 0
  %36 = load ptr, ptr %35, align 8, !tbaa !22
  %37 = call i32 @i2a_ASN1_OBJECT(ptr noundef %31, ptr noundef %36)
  %38 = load ptr, ptr %7, align 8, !tbaa !13
  %39 = call i32 @BIO_puts(ptr noundef %38, ptr noundef @.str.3)
  %40 = load ptr, ptr %6, align 8, !tbaa !11
  %41 = getelementptr inbounds nuw %struct.PROXY_CERT_INFO_EXTENSION_st, ptr %40, i32 0, i32 1
  %42 = load ptr, ptr %41, align 8, !tbaa !21
  %43 = getelementptr inbounds nuw %struct.PROXY_POLICY_st, ptr %42, i32 0, i32 1
  %44 = load ptr, ptr %43, align 8, !tbaa !25
  %45 = icmp ne ptr %44, null
  br i1 %45, label %46, label %66

46:                                               ; preds = %25
  %47 = load ptr, ptr %6, align 8, !tbaa !11
  %48 = getelementptr inbounds nuw %struct.PROXY_CERT_INFO_EXTENSION_st, ptr %47, i32 0, i32 1
  %49 = load ptr, ptr %48, align 8, !tbaa !21
  %50 = getelementptr inbounds nuw %struct.PROXY_POLICY_st, ptr %49, i32 0, i32 1
  %51 = load ptr, ptr %50, align 8, !tbaa !25
  %52 = getelementptr inbounds nuw %struct.asn1_string_st, ptr %51, i32 0, i32 2
  %53 = load ptr, ptr %52, align 8, !tbaa !26
  %54 = icmp ne ptr %53, null
  br i1 %54, label %55, label %66

55:                                               ; preds = %46
  %56 = load ptr, ptr %7, align 8, !tbaa !13
  %57 = load i32, ptr %8, align 4, !tbaa !15
  %58 = load ptr, ptr %6, align 8, !tbaa !11
  %59 = getelementptr inbounds nuw %struct.PROXY_CERT_INFO_EXTENSION_st, ptr %58, i32 0, i32 1
  %60 = load ptr, ptr %59, align 8, !tbaa !21
  %61 = getelementptr inbounds nuw %struct.PROXY_POLICY_st, ptr %60, i32 0, i32 1
  %62 = load ptr, ptr %61, align 8, !tbaa !25
  %63 = getelementptr inbounds nuw %struct.asn1_string_st, ptr %62, i32 0, i32 2
  %64 = load ptr, ptr %63, align 8, !tbaa !26
  %65 = call i32 (ptr, ptr, ...) @BIO_printf(ptr noundef %56, ptr noundef @.str.5, i32 noundef %57, ptr noundef @.str.1, ptr noundef %64)
  br label %66

66:                                               ; preds = %55, %46, %25
  ret i32 1
}