; Function Attrs: nounwind uwtable
define internal noundef i32 @i2r_pci(ptr readnone captures(none) %0, ptr noundef readonly captures(none) %1, ptr noundef %2, i32 noundef %3) #0 {
  %5 = tail call i32 (ptr, ptr, ...) @BIO_printf(ptr noundef %2, ptr noundef nonnull @.str, i32 noundef %3, ptr noundef nonnull @.str.1) #7
  %6 = load ptr, ptr %1, align 8, !tbaa !6
  %.not = icmp eq ptr %6, null
  br i1 %.not, label %9, label %7

7:                                                ; preds = %4
  %8 = tail call i32 @i2a_ASN1_INTEGER(ptr noundef %2, ptr noundef nonnull %6) #7
  br label %11

9:                                                ; preds = %4
  %10 = tail call i32 (ptr, ptr, ...) @BIO_printf(ptr noundef %2, ptr noundef nonnull @.str.2) #7
  br label %11

11:                                               ; preds = %9, %7
  %12 = tail call i32 @BIO_puts(ptr noundef %2, ptr noundef nonnull @.str.3) #7
  %13 = tail call i32 (ptr, ptr, ...) @BIO_printf(ptr noundef %2, ptr noundef nonnull @.str.4, i32 noundef %3, ptr noundef nonnull @.str.1) #7
  %14 = getelementptr inbounds nuw i8, ptr %1, i64 8
  %15 = load ptr, ptr %14, align 8, !tbaa !13
  %16 = load ptr, ptr %15, align 8, !tbaa !14
  %17 = tail call i32 @i2a_ASN1_OBJECT(ptr noundef %2, ptr noundef %16) #7
  %18 = tail call i32 @BIO_puts(ptr noundef %2, ptr noundef nonnull @.str.3) #7
  %19 = load ptr, ptr %14, align 8, !tbaa !13
  %20 = getelementptr inbounds nuw i8, ptr %19, i64 8
  %21 = load ptr, ptr %20, align 8, !tbaa !17
  %.not18 = icmp eq ptr %21, null
  br i1 %.not18, label %27, label %22

22:                                               ; preds = %11
  %23 = getelementptr inbounds nuw i8, ptr %21, i64 8
  %24 = load ptr, ptr %23, align 8, !tbaa !18
  %.not19 = icmp eq ptr %24, null
  br i1 %.not19, label %27, label %25

25:                                               ; preds = %22
  %26 = tail call i32 (ptr, ptr, ...) @BIO_printf(ptr noundef %2, ptr noundef nonnull @.str.5, i32 noundef %3, ptr noundef nonnull @.str.1, ptr noundef nonnull %24) #7
  br label %27

27:                                               ; preds = %25, %22, %11
  ret i32 1
}